; Function Attrs: nofree norecurse nosync nounwind memory(read, argmem: readwrite, inaccessiblemem: readwrite) uwtable
define hidden i32 @VP8GetValue(ptr nocapture noundef %0, i32 noundef %1) local_unnamed_addr #4 {
  %3 = icmp sgt i32 %1, 0
  br i1 %3, label %.lr.ph, label %66

.lr.ph:                                           ; preds = %2
  %4 = getelementptr inbounds i8, ptr %0, i64 8
  %5 = getelementptr inbounds i8, ptr %0, i64 12
  %6 = getelementptr inbounds i8, ptr %0, i64 16
  %7 = getelementptr inbounds i8, ptr %0, i64 32
  %8 = getelementptr inbounds i8, ptr %0, i64 24
  %9 = getelementptr inbounds i8, ptr %0, i64 40
  %.promoted = load i32, ptr %4, align 8, !alias.scope !7
  %.promoted7 = load i32, ptr %5, align 4, !alias.scope !7
  %.promoted9 = load i64, ptr %0, align 8, !alias.scope !7
  br label %10

10:                                               ; preds = %.lr.ph, %VP8GetBit.exit
  %11 = phi i64 [ %.promoted9, %.lr.ph ], [ %56, %VP8GetBit.exit ]
  %12 = phi i32 [ %.promoted7, %.lr.ph ], [ %61, %VP8GetBit.exit ]
  %13 = phi i32 [ %.promoted, %.lr.ph ], [ %62, %VP8GetBit.exit ]
  %.06 = phi i32 [ 0, %.lr.ph ], [ %64, %VP8GetBit.exit ]
  %.045 = phi i32 [ %1, %.lr.ph ], [ %14, %VP8GetBit.exit ]
  %14 = add nsw i32 %.045, -1
  tail call void @llvm.experimental.noalias.scope.decl(metadata !7)
  %15 = icmp slt i32 %12, 0
  br i1 %15, label %16, label %VP8LoadNewBytes.exit.i

16:                                               ; preds = %10
  tail call void @llvm.experimental.noalias.scope.decl(metadata !10)
  %17 = load ptr, ptr %6, align 8, !alias.scope !13
  %18 = load ptr, ptr %7, align 8, !alias.scope !13
  %19 = icmp ult ptr %17, %18
  br i1 %19, label %20, label %25

20:                                               ; preds = %16
  %.0.copyload.i.i = load i64, ptr %17, align 1, !noalias !13
  %21 = getelementptr inbounds i8, ptr %17, i64 7
  store ptr %21, ptr %6, align 8, !alias.scope !13
  %22 = tail call noundef i64 @llvm.bswap.i64(i64 %.0.copyload.i.i)
  %23 = tail call i64 @llvm.fshl.i64(i64 %11, i64 %22, i64 56)
  store i64 %23, ptr %0, align 8, !alias.scope !13
  %24 = add nsw i32 %12, 56
  br label %VP8LoadNewBytes.exit.i

25:                                               ; preds = %16
  %26 = load ptr, ptr %8, align 8, !alias.scope !13
  %27 = icmp ult ptr %17, %26
  br i1 %27, label %28, label %35

28:                                               ; preds = %25
  %29 = add nsw i32 %12, 8
  %30 = getelementptr inbounds i8, ptr %17, i64 1
  store ptr %30, ptr %6, align 8, !alias.scope !13
  %31 = load i8, ptr %17, align 1, !noalias !13
  %32 = zext i8 %31 to i64
  %33 = shl i64 %11, 8
  %34 = or disjoint i64 %33, %32
  store i64 %34, ptr %0, align 8, !alias.scope !13
  br label %VP8LoadNewBytes.exit.i

35:                                               ; preds = %25
  %36 = load i32, ptr %9, align 8, !alias.scope !13
  %.not.i.i.i = icmp eq i32 %36, 0
  br i1 %.not.i.i.i, label %37, label %VP8LoadNewBytes.exit.i

37:                                               ; preds = %35
  %38 = shl i64 %11, 8
  store i64 %38, ptr %0, align 8, !alias.scope !13
  %39 = add nsw i32 %12, 8
  store i32 1, ptr %9, align 8, !alias.scope !13
  br label %VP8LoadNewBytes.exit.i

VP8LoadNewBytes.exit.i:                           ; preds = %37, %35, %28, %20, %10
  %40 = phi i64 [ %38, %37 ], [ %34, %28 ], [ %23, %20 ], [ %11, %10 ], [ %11, %35 ]
  %41 = phi i32 [ %39, %37 ], [ %29, %28 ], [ %24, %20 ], [ %12, %10 ], [ 0, %35 ]
  %42 = lshr i32 %13, 1
  %43 = and i32 %42, 16777215
  %44 = zext i32 %41 to i64
  %45 = lshr i64 %40, %44
  %46 = trunc i64 %45 to i32
  %47 = icmp ult i32 %43, %46
  br i1 %47, label %48, label %54

48:                                               ; preds = %VP8LoadNewBytes.exit.i
  %49 = sub i32 %13, %43
  %50 = add nuw nsw i32 %43, 1
  %51 = zext nneg i32 %50 to i64
  %52 = shl i64 %51, %44
  %53 = sub i64 %40, %52
  store i64 %53, ptr %0, align 8, !alias.scope !7
  br label %VP8GetBit.exit

54:                                               ; preds = %VP8LoadNewBytes.exit.i
  %55 = add nuw nsw i32 %43, 1
  br label %VP8GetBit.exit

VP8GetBit.exit:                                   ; preds = %48, %54
  %56 = phi i64 [ %53, %48 ], [ %40, %54 ]
  %.0.i = phi i32 [ %49, %48 ], [ %55, %54 ]
  %57 = zext i1 %47 to i32
  %58 = tail call range(i32 0, 33) i32 @llvm.ctlz.i32(i32 %.0.i, i1 true)
  %59 = xor i32 %58, 24
  %60 = shl i32 %.0.i, %59
  %61 = sub nsw i32 %41, %59
  %62 = add i32 %60, -1
  %63 = shl nuw i32 %57, %14
  %64 = or i32 %63, %.06
  %65 = icmp ugt i32 %.045, 1
  br i1 %65, label %10, label %._crit_edge, !llvm.loop !14

._crit_edge:                                      ; preds = %VP8GetBit.exit
  store i32 %62, ptr %4, align 8, !alias.scope !7
  store i32 %61, ptr %5, align 4, !alias.scope !7
  br label %66

66:                                               ; preds = %._crit_edge, %2
  %.0.lcssa = phi i32 [ %64, %._crit_edge ], [ 0, %2 ]
  ret i32 %.0.lcssa
}